; Function Attrs: mustprogress uwtable
define hidden void @_ZN5stack10deallocateEv(ptr noundef nonnull align 8 dereferenceable(32) %0) local_unnamed_addr #3 align 2 {
  %2 = getelementptr inbounds nuw i8, ptr %0, i64 8
  %3 = load ptr, ptr %2, align 8, !tbaa !12
  %4 = getelementptr inbounds i8, ptr %3, i64 -8
  %5 = load i64, ptr %4, align 8, !tbaa !10
  %6 = load ptr, ptr %0, align 8, !tbaa !3
  %7 = getelementptr inbounds nuw i8, ptr %6, i64 8
  %8 = icmp eq ptr %3, %7
  br i1 %8, label %9, label %17

9:                                                ; preds = %1
  %10 = getelementptr inbounds i8, ptr %6, i64 -8
  %11 = load i64, ptr %10, align 8, !tbaa !10
  %12 = and i64 %11, -2
  %13 = inttoptr i64 %12 to ptr
  %14 = getelementptr inbounds nuw i8, ptr %0, i64 24
  tail call void @_Z12recycle_pagePcRS_(ptr noundef %6, ptr noundef nonnull align 8 dereferenceable(8) %14)
  store ptr %13, ptr %0, align 8, !tbaa !3
  %15 = getelementptr inbounds nuw i8, ptr %13, i64 8184
  %16 = getelementptr inbounds nuw i8, ptr %0, i64 16
  store ptr %15, ptr %16, align 8, !tbaa !9
  br label %17

17:                                               ; preds = %1, %9
  %.in = and i64 %5, -2
  %18 = inttoptr i64 %.in to ptr
  store ptr %18, ptr %2, align 8, !tbaa !12
  %19 = and i64 %5, 1
  %.not = icmp eq i64 %19, 0
  br i1 %.not, label %_Z13dealloc_svectIcEvPT_.exit, label %20

20:                                               ; preds = %17
  %21 = load ptr, ptr %18, align 8, !tbaa !13
  %22 = icmp eq ptr %21, null
  br i1 %22, label %_Z13dealloc_svectIcEvPT_.exit, label %23

23:                                               ; preds = %20
  tail call void @_ZN6memory10deallocateEPv(ptr noundef nonnull %21)
  br label %_Z13dealloc_svectIcEvPT_.exit

_Z13dealloc_svectIcEvPT_.exit:                    ; preds = %23, %20, %17
  ret void
}